; ModuleID = '23/925.c'
source_filename = "23/925.c"
target datalayout = "e-m:e-p270:32:32-p271:32:32-p272:64:64-i64:64-f80:128-n8:16:32:64-S128"
target triple = "x86_64-pc-linux-gnu"

@.str = private unnamed_addr constant [3 x i8] c"%s\00", align 1

; Function Attrs: noinline nounwind uwtable
define dso_local void @main() #0 {
  %1 = alloca [101 x i8], align 16
  %2 = alloca i8*, align 8
  %3 = alloca i8*, align 8
  %4 = getelementptr inbounds [101 x i8], [101 x i8]* %1, i64 0, i64 0
  %5 = call i32 (i8*, ...) bitcast (i32 (...)* @gets to i32 (i8*, ...)*)(i8* %4)
  %6 = getelementptr inbounds [101 x i8], [101 x i8]* %1, i64 0, i64 0
  %7 = getelementptr inbounds [101 x i8], [101 x i8]* %1, i64 0, i64 0
  %8 = call i64 @strlen(i8* %7) #3
  %9 = getelementptr inbounds i8, i8* %6, i64 %8
  store i8* %9, i8** %2, align 8
  br label %10

10:                                               ; preds = %46, %0
  %11 = load i8*, i8** %2, align 8
  %12 = getelementptr inbounds i8, i8* %11, i64 1
  %13 = getelementptr inbounds [101 x i8], [101 x i8]* %1, i64 0, i64 0
  %14 = icmp ugt i8* %12, %13
  br i1 %14, label %15, label %47

15:                                               ; preds = %10
  %16 = load i8*, i8** %2, align 8
  store i8* %16, i8** %3, align 8
  %17 = load i8*, i8** %3, align 8
  store i8 0, i8* %17, align 1
  br label %18

18:                                               ; preds = %30, %15
  %19 = load i8*, i8** %2, align 8
  %20 = load i8, i8* %19, align 1
  %21 = sext i8 %20 to i32
  %22 = icmp ne i32 %21, 32
  br i1 %22, label %23, label %27

23:                                               ; preds = %18
  %24 = load i8*, i8** %2, align 8
  %25 = getelementptr inbounds [101 x i8], [101 x i8]* %1, i64 0, i64 0
  %26 = icmp uge i8* %24, %25
  br label %27

27:                                               ; preds = %23, %18
  %28 = phi i1 [ false, %18 ], [ %26, %23 ]
  br i1 %28, label %29, label %33

29:                                               ; preds = %27
  br label %30

30:                                               ; preds = %29
  %31 = load i8*, i8** %2, align 8
  %32 = getelementptr inbounds i8, i8* %31, i32 -1
  store i8* %32, i8** %2, align 8
  br label %18

33:                                               ; preds = %27
  %34 = load i8*, i8** %2, align 8
  %35 = getelementptr inbounds i8, i8* %34, i64 1
  %36 = getelementptr inbounds [101 x i8], [101 x i8]* %1, i64 0, i64 0
  %37 = icmp ugt i8* %35, %36
  br i1 %37, label %38, label %43

38:                                               ; preds = %33
  %39 = load i8*, i8** %2, align 8
  %40 = getelementptr inbounds i8, i8* %39, i64 1
  %41 = call i32 (i8*, ...) @printf(i8* getelementptr inbounds ([3 x i8], [3 x i8]* @.str, i64 0, i64 0), i8* %40)
  %42 = call i32 @putchar(i32 32)
  br label %46

43:                                               ; preds = %33
  %44 = getelementptr inbounds [101 x i8], [101 x i8]* %1, i64 0, i64 0
  %45 = call i32 @puts(i8* %44)
  br label %46

46:                                               ; preds = %43, %38
  br label %10

47:                                               ; preds = %10
  ret void
}

declare dso_local i32 @gets(...) #1

; Function Attrs: nounwind readonly
declare dso_local i64 @strlen(i8*) #2

declare dso_local i32 @printf(i8*, ...) #1

declare dso_local i32 @putchar(i32) #1

declare dso_local i32 @puts(i8*) #1


!llvm.module.flags = !{!0}
!llvm.ident = !{!1}

!0 = !{i32 1, !"wchar_size", i32 4}
!1 = !{!"clang version 10.0.0-4ubuntu1 "}
