; ModuleID = 'source-C-CXX/22/925.c'
source_filename = "source-C-CXX/22/925.c"
target datalayout = "e-m:e-p270:32:32-p271:32:32-p272:64:64-i64:64-f80:128-n8:16:32:64-S128"
target triple = "x86_64-pc-linux-gnu"

%struct._IO_FILE = type { i32, i8*, i8*, i8*, i8*, i8*, i8*, i8*, i8*, i8*, i8*, i8*, %struct._IO_marker*, %struct._IO_FILE*, i32, i32, i64, i16, i8, [1 x i8], i8*, i64, %struct._IO_codecvt*, %struct._IO_wide_data*, %struct._IO_FILE*, i8*, i64, i32, [20 x i8] }
%struct._IO_marker = type opaque
%struct._IO_codecvt = type opaque
%struct._IO_wide_data = type opaque

@.str = private unnamed_addr constant [3 x i8] c"%s\00", align 1
@stdout = external local_unnamed_addr global %struct._IO_FILE*, align 8

; Function Attrs: nounwind sspstrong uwtable
define dso_local void @main() local_unnamed_addr #0 {
  %1 = alloca [101 x i8], align 16
  %2 = getelementptr inbounds [101 x i8], [101 x i8]* %1, i64 0, i64 0
  call void @llvm.lifetime.start.p0i8(i64 101, i8* nonnull %2) #5
  %3 = call i32 (i8*, ...) bitcast (i32 (...)* @gets to i32 (i8*, ...)*)(i8* nonnull %2) #5
  %4 = call i64 @strlen(i8* noundef nonnull %2) #6
  %5 = getelementptr inbounds [101 x i8], [101 x i8]* %1, i64 0, i64 %4
  %6 = getelementptr inbounds i8, i8* %5, i64 1
  %7 = icmp ugt i8* %6, %2
  br i1 %7, label %8, label %28

8:                                                ; preds = %0, %22
  %9 = phi i8* [ %19, %22 ], [ %5, %0 ]
  store i8 0, i8* %9, align 1, !tbaa !5
  %10 = icmp ult i8* %9, %2
  br i1 %10, label %18, label %11, !llvm.loop !8

11:                                               ; preds = %8, %11
  %12 = phi i8* [ %13, %11 ], [ %9, %8 ]
  %13 = getelementptr inbounds i8, i8* %12, i64 -1
  %14 = load i8, i8* %13, align 1, !tbaa !5
  %15 = icmp ne i8 %14, 32
  %16 = icmp uge i8* %13, %2
  %17 = and i1 %16, %15
  br i1 %17, label %11, label %18, !llvm.loop !8

18:                                               ; preds = %11, %8
  %19 = phi i8* [ %9, %8 ], [ %13, %11 ]
  %20 = getelementptr inbounds i8, i8* %19, i64 1
  %21 = icmp ugt i8* %20, %2
  br i1 %21, label %22, label %26

22:                                               ; preds = %18
  %23 = call i32 (i8*, ...) @printf(i8* nonnull dereferenceable(1) getelementptr inbounds ([3 x i8], [3 x i8]* @.str, i64 0, i64 0), i8* nonnull %20)
  %24 = load %struct._IO_FILE*, %struct._IO_FILE** @stdout, align 8, !tbaa !10
  %25 = call i32 @putc(i32 32, %struct._IO_FILE* %24) #5
  br label %8

26:                                               ; preds = %18
  %27 = call i32 @puts(i8* nonnull %2)
  br label %28

28:                                               ; preds = %26, %0
  call void @llvm.lifetime.end.p0i8(i64 101, i8* nonnull %2) #5
  ret void
}

; Function Attrs: argmemonly mustprogress nofree nosync nounwind willreturn
declare void @llvm.lifetime.start.p0i8(i64 immarg, i8* nocapture) #1

declare i32 @gets(...) local_unnamed_addr #2

; Function Attrs: argmemonly mustprogress nofree nounwind readonly willreturn
declare i64 @strlen(i8* nocapture) local_unnamed_addr #3

; Function Attrs: nofree nounwind
declare noundef i32 @printf(i8* nocapture noundef readonly, ...) local_unnamed_addr #4

; Function Attrs: nofree nounwind
declare noundef i32 @puts(i8* nocapture noundef readonly) local_unnamed_addr #4

; Function Attrs: argmemonly mustprogress nofree nosync nounwind willreturn
declare void @llvm.lifetime.end.p0i8(i64 immarg, i8* nocapture) #1

; Function Attrs: nofree nounwind
declare noundef i32 @putc(i32 noundef, %struct._IO_FILE* nocapture noundef) local_unnamed_addr #4


!llvm.module.flags = !{!0, !1, !2, !3}
!llvm.ident = !{!4}

!0 = !{i32 1, !"wchar_size", i32 4}
!1 = !{i32 7, !"PIC Level", i32 2}
!2 = !{i32 7, !"PIE Level", i32 2}
!3 = !{i32 7, !"uwtable", i32 1}
!4 = !{!"clang version 13.0.0"}
!5 = !{!6, !6, i64 0}
!6 = !{!"omnipotent char", !7, i64 0}
!7 = !{!"Simple C/C++ TBAA"}
!8 = distinct !{!8, !9}
!9 = !{!"llvm.loop.mustprogress"}
!10 = !{!11, !11, i64 0}
!11 = !{!"any pointer", !6, i64 0}
